target datalayout = "e-m:e-p270:32:32-p271:32:32-p272:64:64-i64:64-i128:128-f80:128-n8:16:32:64-S128"
target triple = "x86_64-pc-linux-gnu"

%struct._typeobject = type { %struct.PyVarObject, ptr, i64, i64, ptr, i64, ptr, ptr, ptr, ptr, ptr, ptr, ptr, ptr, ptr, ptr, ptr, ptr, ptr, i64, ptr, ptr, ptr, ptr, i64, ptr, ptr, ptr, ptr, ptr, ptr, ptr, ptr, ptr, i64, ptr, ptr, ptr, ptr, ptr, ptr, ptr, ptr, ptr, ptr, ptr, i32, ptr, ptr, i8, i16 }
%struct.PyVarObject = type { %struct._object, i64 }
%struct._object = type { %union.anon, ptr }
%union.anon = type { i64 }
%struct.PyTupleObject = type { %struct.PyVarObject, [1 x ptr] }
%struct.mapobject = type { %struct._object, ptr, ptr, i32 }
%struct.anon = type { i32, i32 }

@_Py_tss_tstate = external thread_local global ptr, align 8
@PyExc_TypeError = external global ptr, align 8
@.str.45 = private unnamed_addr constant [40 x i8] c"map() must have at least two arguments.\00", align 1

; Function Attrs: alwaysinline nounwind uwtable
define internal void @Py_INCREF(ptr noundef %0) #3 {
  %2 = alloca ptr, align 8
  %3 = alloca i32, align 4
  %4 = alloca i32, align 4
  store ptr %0, ptr %2, align 8, !tbaa !4
  call void @llvm.lifetime.start.p0(i64 4, ptr %3) #9
  %5 = load ptr, ptr %2, align 8, !tbaa !4
  %6 = getelementptr inbounds nuw %struct._object, ptr %5, i32 0, i32 0
  %7 = getelementptr inbounds nuw %struct.anon, ptr %6, i32 0, i32 0
  %8 = load i32, ptr %7, align 8, !tbaa !74
  store i32 %8, ptr %3, align 4, !tbaa !38
  %9 = load i32, ptr %3, align 4, !tbaa !38
  %10 = icmp slt i32 %9, 0
  br i1 %10, label %11, label %12

11:                                               ; preds = %1
  store i32 1, ptr %4, align 4
  br label %18

12:                                               ; preds = %1
  %13 = load i32, ptr %3, align 4, !tbaa !38
  %14 = add i32 %13, 1
  %15 = load ptr, ptr %2, align 8, !tbaa !4
  %16 = getelementptr inbounds nuw %struct._object, ptr %15, i32 0, i32 0
  %17 = getelementptr inbounds nuw %struct.anon, ptr %16, i32 0, i32 0
  store i32 %14, ptr %17, align 8, !tbaa !74
  store i32 0, ptr %4, align 4
  br label %18

18:                                               ; preds = %12, %11
  call void @llvm.lifetime.end.p0(i64 4, ptr %3) #9
  %19 = load i32, ptr %4, align 4
  switch i32 %19, label %21 [
    i32 0, label %20
    i32 1, label %20
  ]

20:                                               ; preds = %18, %18
  ret void

21:                                               ; preds = %18
  unreachable
}

; Function Attrs: alwaysinline nounwind uwtable
define internal i32 @_Py_IsImmortal(ptr noundef %0) #3 {
  %2 = alloca ptr, align 8
  store ptr %0, ptr %2, align 8, !tbaa !4
  %3 = load ptr, ptr %2, align 8, !tbaa !4
  %4 = getelementptr inbounds nuw %struct._object, ptr %3, i32 0, i32 0
  %5 = getelementptr inbounds nuw %struct.anon, ptr %4, i32 0, i32 0
  %6 = load i32, ptr %5, align 8, !tbaa !74
  %7 = icmp slt i32 %6, 0
  %8 = zext i1 %7 to i32
  ret i32 %8
}

; Function Attrs: inlinehint nounwind uwtable
define internal i64 @Py_SIZE(ptr noundef %0) #4 {
  %2 = alloca ptr, align 8
  store ptr %0, ptr %2, align 8, !tbaa !4
  %3 = load ptr, ptr %2, align 8, !tbaa !4
  %4 = getelementptr inbounds nuw %struct.PyVarObject, ptr %3, i32 0, i32 1
  %5 = load i64, ptr %4, align 8, !tbaa !76
  ret i64 %5
}

; Function Attrs: inlinehint nounwind uwtable
define internal ptr @_Py_NewRef(ptr noundef %0) #4 {
  %2 = alloca ptr, align 8
  store ptr %0, ptr %2, align 8, !tbaa !4
  %3 = load ptr, ptr %2, align 8, !tbaa !4
  call void @Py_INCREF(ptr noundef %3)
  %4 = load ptr, ptr %2, align 8, !tbaa !4
  ret ptr %4
}

; Function Attrs: inlinehint nounwind uwtable
define internal void @PyTuple_SET_ITEM(ptr noundef %0, i64 noundef %1, ptr noundef %2) #4 {
  %4 = alloca ptr, align 8
  %5 = alloca i64, align 8
  %6 = alloca ptr, align 8
  %7 = alloca ptr, align 8
  store ptr %0, ptr %4, align 8, !tbaa !4
  store i64 %1, ptr %5, align 8, !tbaa !40
  store ptr %2, ptr %6, align 8, !tbaa !4
  call void @llvm.lifetime.start.p0(i64 8, ptr %7) #9
  %8 = load ptr, ptr %4, align 8, !tbaa !4
  store ptr %8, ptr %7, align 8, !tbaa !9
  %9 = load ptr, ptr %6, align 8, !tbaa !4
  %10 = load ptr, ptr %7, align 8, !tbaa !9
  %11 = getelementptr inbounds nuw %struct.PyTupleObject, ptr %10, i32 0, i32 1
  %12 = load i64, ptr %5, align 8, !tbaa !40
  %13 = getelementptr [1 x ptr], ptr %11, i64 0, i64 %12
  store ptr %9, ptr %13, align 8, !tbaa !4
  call void @llvm.lifetime.end.p0(i64 8, ptr %7) #9
  ret void
}

; Function Attrs: alwaysinline nounwind uwtable
define internal void @Py_DECREF(ptr noundef %0) #3 {
  %2 = alloca ptr, align 8
  store ptr %0, ptr %2, align 8, !tbaa !4
  %3 = load ptr, ptr %2, align 8, !tbaa !4
  %4 = call i32 @_Py_IsImmortal(ptr noundef %3)
  %5 = icmp ne i32 %4, 0
  br i1 %5, label %6, label %7

6:                                                ; preds = %1
  br label %16

7:                                                ; preds = %1
  %8 = load ptr, ptr %2, align 8, !tbaa !4
  %9 = getelementptr inbounds nuw %struct._object, ptr %8, i32 0, i32 0
  %10 = getelementptr inbounds nuw %struct.anon, ptr %9, i32 0, i32 0
  %11 = load i32, ptr %10, align 8, !tbaa !74
  %12 = add i32 %11, -1
  store i32 %12, ptr %10, align 8, !tbaa !74
  %13 = icmp eq i32 %12, 0
  br i1 %13, label %14, label %16

14:                                               ; preds = %7
  %15 = load ptr, ptr %2, align 8, !tbaa !4
  call void @_Py_Dealloc(ptr noundef %15)
  br label %16

16:                                               ; preds = %6, %14, %7
  ret void
}

; Function Attrs: inlinehint nounwind uwtable
define internal ptr @_PyThreadState_GET() #4 {
  %1 = call align 8 ptr @llvm.threadlocal.address.p0(ptr align 8 @_Py_tss_tstate)
  %2 = load ptr, ptr %1, align 8, !tbaa !10
  ret ptr %2
}

; Function Attrs: inlinehint nounwind uwtable
define internal i64 @PyTuple_GET_SIZE(ptr noundef %0) #4 {
  %2 = alloca ptr, align 8
  %3 = alloca ptr, align 8
  store ptr %0, ptr %2, align 8, !tbaa !4
  call void @llvm.lifetime.start.p0(i64 8, ptr %3) #9
  %4 = load ptr, ptr %2, align 8, !tbaa !4
  store ptr %4, ptr %3, align 8, !tbaa !9
  %5 = load ptr, ptr %3, align 8, !tbaa !9
  %6 = call i64 @Py_SIZE(ptr noundef %5)
  call void @llvm.lifetime.end.p0(i64 8, ptr %3) #9
  ret i64 %6
}

; Function Attrs: inlinehint nounwind uwtable
define internal i64 @_PyVectorcall_NARGS(i64 noundef %0) #4 {
  %2 = alloca i64, align 8
  store i64 %0, ptr %2, align 8, !tbaa !40
  %3 = load i64, ptr %2, align 8, !tbaa !40
  %4 = and i64 %3, 9223372036854775807
  ret i64 %4
}

; Function Attrs: nounwind uwtable
define internal ptr @map_vectorcall(ptr noundef %0, ptr noundef %1, i64 noundef %2, ptr noundef %3) #0 {
  %5 = alloca ptr, align 8
  %6 = alloca ptr, align 8
  %7 = alloca ptr, align 8
  %8 = alloca i64, align 8
  %9 = alloca ptr, align 8
  %10 = alloca ptr, align 8
  %11 = alloca i64, align 8
  %12 = alloca ptr, align 8
  %13 = alloca i32, align 4
  %14 = alloca ptr, align 8
  %15 = alloca i32, align 4
  %16 = alloca ptr, align 8
  %17 = alloca ptr, align 8
  store ptr %0, ptr %6, align 8, !tbaa !4
  store ptr %1, ptr %7, align 8, !tbaa !44
  store i64 %2, ptr %8, align 8, !tbaa !40
  store ptr %3, ptr %9, align 8, !tbaa !4
  call void @llvm.lifetime.start.p0(i64 8, ptr %10) #9
  %18 = load ptr, ptr %6, align 8, !tbaa !4
  store ptr %18, ptr %10, align 8, !tbaa !41
  call void @llvm.lifetime.start.p0(i64 8, ptr %11) #9
  %19 = load i64, ptr %8, align 8, !tbaa !40
  %20 = call i64 @_PyVectorcall_NARGS(i64 noundef %19)
  store i64 %20, ptr %11, align 8, !tbaa !40
  %21 = load ptr, ptr %9, align 8, !tbaa !4
  %22 = icmp ne ptr %21, null
  br i1 %22, label %23, label %35

23:                                               ; preds = %4
  %24 = load ptr, ptr %9, align 8, !tbaa !4
  %25 = call i64 @PyTuple_GET_SIZE(ptr noundef %24)
  %26 = icmp ne i64 %25, 0
  br i1 %26, label %27, label %35

27:                                               ; preds = %23
  call void @llvm.lifetime.start.p0(i64 8, ptr %12) #9
  %28 = call ptr @_PyThreadState_GET()
  store ptr %28, ptr %12, align 8, !tbaa !10
  %29 = load ptr, ptr %12, align 8, !tbaa !10
  %30 = load ptr, ptr %6, align 8, !tbaa !4
  %31 = load ptr, ptr %7, align 8, !tbaa !44
  %32 = load i64, ptr %11, align 8, !tbaa !40
  %33 = load ptr, ptr %9, align 8, !tbaa !4
  %34 = call ptr @_PyObject_MakeTpCall(ptr noundef %29, ptr noundef %30, ptr noundef %31, i64 noundef %32, ptr noundef %33)
  store ptr %34, ptr %5, align 8
  store i32 1, ptr %13, align 4
  call void @llvm.lifetime.end.p0(i64 8, ptr %12) #9
  br label %104

35:                                               ; preds = %23, %4
  %36 = load i64, ptr %11, align 8, !tbaa !40
  %37 = icmp slt i64 %36, 2
  br i1 %37, label %38, label %40

38:                                               ; preds = %35
  %39 = load ptr, ptr @PyExc_TypeError, align 8, !tbaa !4
  call void @PyErr_SetString(ptr noundef %39, ptr noundef @.str.45)
  store ptr null, ptr %5, align 8
  store i32 1, ptr %13, align 4
  br label %104

40:                                               ; preds = %35
  call void @llvm.lifetime.start.p0(i64 8, ptr %14) #9
  %41 = load i64, ptr %11, align 8, !tbaa !40
  %42 = sub i64 %41, 1
  %43 = call ptr @PyTuple_New(i64 noundef %42)
  store ptr %43, ptr %14, align 8, !tbaa !4
  %44 = load ptr, ptr %14, align 8, !tbaa !4
  %45 = icmp eq ptr %44, null
  br i1 %45, label %46, label %47

46:                                               ; preds = %40
  store ptr null, ptr %5, align 8
  store i32 1, ptr %13, align 4
  br label %103

47:                                               ; preds = %40
  call void @llvm.lifetime.start.p0(i64 4, ptr %15) #9
  store i32 1, ptr %15, align 4, !tbaa !38
  br label %48

48:                                               ; preds = %74, %47
  %49 = load i32, ptr %15, align 4, !tbaa !38
  %50 = sext i32 %49 to i64
  %51 = load i64, ptr %11, align 8, !tbaa !40
  %52 = icmp slt i64 %50, %51
  br i1 %52, label %54, label %53

53:                                               ; preds = %48
  store i32 2, ptr %13, align 4
  br label %77

54:                                               ; preds = %48
  call void @llvm.lifetime.start.p0(i64 8, ptr %16) #9
  %55 = load ptr, ptr %7, align 8, !tbaa !44
  %56 = load i32, ptr %15, align 4, !tbaa !38
  %57 = sext i32 %56 to i64
  %58 = getelementptr ptr, ptr %55, i64 %57
  %59 = load ptr, ptr %58, align 8, !tbaa !4
  %60 = call ptr @PyObject_GetIter(ptr noundef %59)
  store ptr %60, ptr %16, align 8, !tbaa !4
  %61 = load ptr, ptr %16, align 8, !tbaa !4
  %62 = icmp eq ptr %61, null
  br i1 %62, label %63, label %65

63:                                               ; preds = %54
  %64 = load ptr, ptr %14, align 8, !tbaa !4
  call void @Py_DECREF(ptr noundef %64)
  store ptr null, ptr %5, align 8
  store i32 1, ptr %13, align 4
  br label %71

65:                                               ; preds = %54
  %66 = load ptr, ptr %14, align 8, !tbaa !4
  %67 = load i32, ptr %15, align 4, !tbaa !38
  %68 = sub i32 %67, 1
  %69 = sext i32 %68 to i64
  %70 = load ptr, ptr %16, align 8, !tbaa !4
  call void @PyTuple_SET_ITEM(ptr noundef %66, i64 noundef %69, ptr noundef %70)
  store i32 0, ptr %13, align 4
  br label %71

71:                                               ; preds = %65, %63
  call void @llvm.lifetime.end.p0(i64 8, ptr %16) #9
  %72 = load i32, ptr %13, align 4
  switch i32 %72, label %77 [
    i32 0, label %73
  ]

73:                                               ; preds = %71
  br label %74

74:                                               ; preds = %73
  %75 = load i32, ptr %15, align 4, !tbaa !38
  %76 = add i32 %75, 1
  store i32 %76, ptr %15, align 4, !tbaa !38
  br label %48, !llvm.loop !55

77:                                               ; preds = %71, %53
  call void @llvm.lifetime.end.p0(i64 4, ptr %15) #9
  %78 = load i32, ptr %13, align 4
  switch i32 %78, label %103 [
    i32 2, label %79
  ]

79:                                               ; preds = %77
  call void @llvm.lifetime.start.p0(i64 8, ptr %17) #9
  %80 = load ptr, ptr %10, align 8, !tbaa !41
  %81 = getelementptr inbounds nuw %struct._typeobject, ptr %80, i32 0, i32 36
  %82 = load ptr, ptr %81, align 8, !tbaa !43
  %83 = load ptr, ptr %10, align 8, !tbaa !41
  %84 = call ptr %82(ptr noundef %83, i64 noundef 0)
  store ptr %84, ptr %17, align 8, !tbaa !9
  %85 = load ptr, ptr %17, align 8, !tbaa !9
  %86 = icmp eq ptr %85, null
  br i1 %86, label %87, label %89

87:                                               ; preds = %79
  %88 = load ptr, ptr %14, align 8, !tbaa !4
  call void @Py_DECREF(ptr noundef %88)
  store ptr null, ptr %5, align 8
  store i32 1, ptr %13, align 4
  br label %102

89:                                               ; preds = %79
  %90 = load ptr, ptr %14, align 8, !tbaa !4
  %91 = load ptr, ptr %17, align 8, !tbaa !9
  %92 = getelementptr inbounds nuw %struct.mapobject, ptr %91, i32 0, i32 1
  store ptr %90, ptr %92, align 8, !tbaa !45
  %93 = load ptr, ptr %7, align 8, !tbaa !44
  %94 = getelementptr ptr, ptr %93, i64 0
  %95 = load ptr, ptr %94, align 8, !tbaa !4
  %96 = call ptr @_Py_NewRef(ptr noundef %95)
  %97 = load ptr, ptr %17, align 8, !tbaa !9
  %98 = getelementptr inbounds nuw %struct.mapobject, ptr %97, i32 0, i32 2
  store ptr %96, ptr %98, align 8, !tbaa !47
  %99 = load ptr, ptr %17, align 8, !tbaa !9
  %100 = getelementptr inbounds nuw %struct.mapobject, ptr %99, i32 0, i32 3
  store i32 0, ptr %100, align 8, !tbaa !48
  %101 = load ptr, ptr %17, align 8, !tbaa !9
  store ptr %101, ptr %5, align 8
  store i32 1, ptr %13, align 4
  br label %102

102:                                              ; preds = %89, %87
  call void @llvm.lifetime.end.p0(i64 8, ptr %17) #9
  br label %103

103:                                              ; preds = %102, %77, %46
  call void @llvm.lifetime.end.p0(i64 8, ptr %14) #9
  br label %104

104:                                              ; preds = %103, %38, %27
  call void @llvm.lifetime.end.p0(i64 8, ptr %11) #9
  call void @llvm.lifetime.end.p0(i64 8, ptr %10) #9
  %105 = load ptr, ptr %5, align 8
  ret ptr %105
}