; Function Attrs: nounwind uwtable
define internal ptr @map_vectorcall(ptr noundef %0, ptr noundef %1, i64 noundef %2, ptr noundef %3) #0 {
  %5 = and i64 %2, 9223372036854775807
  %.not = icmp eq ptr %3, null
  br i1 %.not, label %12, label %6

6:                                                ; preds = %4
  %7 = getelementptr i8, ptr %3, i64 16
  %.val = load i64, ptr %7, align 8, !tbaa !45
  %.not44 = icmp eq i64 %.val, 0
  br i1 %.not44, label %12, label %8

8:                                                ; preds = %6
  %9 = tail call align 8 ptr @llvm.threadlocal.address.p0(ptr align 8 @_Py_tss_tstate)
  %10 = load ptr, ptr %9, align 8, !tbaa !44
  %11 = tail call ptr @_PyObject_MakeTpCall(ptr noundef %10, ptr noundef %0, ptr noundef %1, i64 noundef %5, ptr noundef nonnull %3) #9
  br label %Py_DECREF.exit48

12:                                               ; preds = %6, %4
  %13 = icmp samesign ult i64 %5, 2
  br i1 %13, label %14, label %16

14:                                               ; preds = %12
  %15 = load ptr, ptr @PyExc_TypeError, align 8, !tbaa !39
  tail call void @PyErr_SetString(ptr noundef %15, ptr noundef nonnull @.str.45) #9
  br label %Py_DECREF.exit48

16:                                               ; preds = %12
  %17 = add nsw i64 %5, -1
  %18 = tail call ptr @PyTuple_New(i64 noundef %17) #9
  %19 = icmp eq ptr %18, null
  br i1 %19, label %Py_DECREF.exit48, label %.lr.ph

.lr.ph:                                           ; preds = %16
  %20 = getelementptr inbounds nuw i8, ptr %18, i64 24
  br label %21

21:                                               ; preds = %.lr.ph, %32
  %22 = phi i64 [ 1, %.lr.ph ], [ %37, %32 ]
  %.03751 = phi i32 [ 1, %.lr.ph ], [ %36, %32 ]
  %23 = getelementptr ptr, ptr %1, i64 %22
  %24 = load ptr, ptr %23, align 8, !tbaa !39
  %25 = tail call ptr @PyObject_GetIter(ptr noundef %24) #9
  %.not45 = icmp eq ptr %25, null
  br i1 %.not45, label %26, label %32

26:                                               ; preds = %21
  %27 = load i32, ptr %18, align 8, !tbaa !33
  %.not.i = icmp sgt i32 %27, -1
  br i1 %.not.i, label %28, label %Py_DECREF.exit48

28:                                               ; preds = %26
  %29 = add nsw i32 %27, -1
  store i32 %29, ptr %18, align 8, !tbaa !33
  %30 = icmp eq i32 %29, 0
  br i1 %30, label %31, label %Py_DECREF.exit48

31:                                               ; preds = %28
  tail call void @_Py_Dealloc(ptr noundef nonnull %18) #9
  br label %Py_DECREF.exit48

32:                                               ; preds = %21
  %33 = add i32 %.03751, -1
  %34 = sext i32 %33 to i64
  %35 = getelementptr [1 x ptr], ptr %20, i64 0, i64 %34
  store ptr %25, ptr %35, align 8, !tbaa !39
  %36 = add i32 %.03751, 1
  %37 = sext i32 %36 to i64
  %.not46 = icmp sgt i64 %5, %37
  br i1 %.not46, label %21, label %.critedge, !llvm.loop !55

.critedge:                                        ; preds = %32
  %38 = getelementptr inbounds nuw i8, ptr %0, i64 304
  %39 = load ptr, ptr %38, align 8, !tbaa !40
  %40 = tail call ptr %39(ptr noundef %0, i64 noundef 0) #9
  %41 = icmp eq ptr %40, null
  br i1 %41, label %42, label %48

42:                                               ; preds = %.critedge
  %43 = load i32, ptr %18, align 8, !tbaa !33
  %.not.i47 = icmp sgt i32 %43, -1
  br i1 %.not.i47, label %44, label %Py_DECREF.exit48

44:                                               ; preds = %42
  %45 = add nsw i32 %43, -1
  store i32 %45, ptr %18, align 8, !tbaa !33
  %46 = icmp eq i32 %45, 0
  br i1 %46, label %47, label %Py_DECREF.exit48

47:                                               ; preds = %44
  tail call void @_Py_Dealloc(ptr noundef nonnull %18) #9
  br label %Py_DECREF.exit48

48:                                               ; preds = %.critedge
  %49 = getelementptr inbounds nuw i8, ptr %40, i64 16
  store ptr %18, ptr %49, align 8, !tbaa !41
  %50 = load ptr, ptr %1, align 8, !tbaa !39
  %51 = load i32, ptr %50, align 8, !tbaa !33
  %52 = icmp slt i32 %51, 0
  br i1 %52, label %_Py_NewRef.exit, label %53

53:                                               ; preds = %48
  %54 = add nuw i32 %51, 1
  store i32 %54, ptr %50, align 8, !tbaa !33
  br label %_Py_NewRef.exit

_Py_NewRef.exit:                                  ; preds = %48, %53
  %55 = getelementptr inbounds nuw i8, ptr %40, i64 24
  store ptr %50, ptr %55, align 8, !tbaa !43
  %56 = getelementptr inbounds nuw i8, ptr %40, i64 32
  store i32 0, ptr %56, align 8, !tbaa !46
  br label %Py_DECREF.exit48

Py_DECREF.exit48:                                 ; preds = %47, %44, %42, %26, %28, %31, %16, %_Py_NewRef.exit, %14, %8
  %.0 = phi ptr [ %11, %8 ], [ null, %14 ], [ null, %16 ], [ %40, %_Py_NewRef.exit ], [ null, %31 ], [ null, %28 ], [ null, %26 ], [ null, %42 ], [ null, %44 ], [ null, %47 ]
  ret ptr %.0
}